; Function Attrs: mustprogress uwtable
define internal noundef i32 @_ZL29cmSourceFileGetPropertyAsBoolPvPKc(ptr noundef %0, ptr noundef %1) #6 personality ptr @__gxx_personality_v0 {
  %3 = alloca %"class.std::__cxx11::basic_string", align 8
  %4 = alloca %"class.std::allocator", align 1
  %5 = load ptr, ptr %0, align 8
  %.not = icmp eq ptr %5, null
  br i1 %.not, label %22, label %6

6:                                                ; preds = %2
  call void @_ZNSaIcEC1Ev(ptr noundef nonnull align 1 dereferenceable(1) %4) #30
  %7 = invoke noundef ptr @_ZNSt7__cxx1112basic_stringIcSt11char_traitsIcESaIcEE13_M_local_dataEv(ptr noundef nonnull align 8 dereferenceable(32) %3)
          to label %.noexc unwind label %18

.noexc:                                           ; preds = %6
  invoke void @_ZNSt7__cxx1112basic_stringIcSt11char_traitsIcESaIcEE12_Alloc_hiderC1EPcRKS3_(ptr noundef nonnull align 8 dereferenceable(8) %3, ptr noundef %7, ptr noundef nonnull align 1 dereferenceable(1) %4)
          to label %.noexc13 unwind label %18

.noexc13:                                         ; preds = %.noexc
  %8 = icmp eq ptr %1, null
  br i1 %8, label %9, label %13

9:                                                ; preds = %.noexc13
  invoke void @_ZSt19__throw_logic_errorPKc(ptr noundef nonnull @.str.14) #35
          to label %10 unwind label %11

10:                                               ; preds = %9
  unreachable

11:                                               ; preds = %13, %9
  %12 = landingpad { ptr, i32 }
          cleanup
  call void @_ZNSaIcED2Ev(ptr noundef nonnull align 1 dereferenceable(1) %3) #30
  br label %.body

13:                                               ; preds = %.noexc13
  %14 = call noundef i64 @strlen(ptr noundef nonnull dereferenceable(1) %1) #30
  %15 = getelementptr inbounds i8, ptr %1, i64 %14
  invoke void @_ZNSt7__cxx1112basic_stringIcSt11char_traitsIcESaIcEE12_M_constructIPKcEEvT_S8_St20forward_iterator_tag(ptr noundef nonnull align 8 dereferenceable(32) %3, ptr noundef nonnull %1, ptr noundef nonnull %15)
          to label %_ZNSt7__cxx1112basic_stringIcSt11char_traitsIcESaIcEEC2IS3_EEPKcRKS3_.exit unwind label %11

_ZNSt7__cxx1112basic_stringIcSt11char_traitsIcESaIcEEC2IS3_EEPKcRKS3_.exit: ; preds = %13
  %16 = invoke noundef zeroext i1 @_ZNK12cmSourceFile17GetPropertyAsBoolERKNSt7__cxx1112basic_stringIcSt11char_traitsIcESaIcEEE(ptr noundef nonnull align 8 dereferenceable(370) %5, ptr noundef nonnull align 8 dereferenceable(32) %3)
          to label %17 unwind label %20

17:                                               ; preds = %_ZNSt7__cxx1112basic_stringIcSt11char_traitsIcESaIcEEC2IS3_EEPKcRKS3_.exit
  call void @_ZNSt7__cxx1112basic_stringIcSt11char_traitsIcESaIcEED1Ev(ptr noundef nonnull align 8 dereferenceable(32) %3) #30
  call void @_ZNSaIcED1Ev(ptr noundef nonnull align 1 dereferenceable(1) %4) #30
  br label %_Z6cmIsOnPKc.exit

18:                                               ; preds = %.noexc, %6
  %19 = landingpad { ptr, i32 }
          cleanup
  br label %.body

20:                                               ; preds = %_ZNSt7__cxx1112basic_stringIcSt11char_traitsIcESaIcEEC2IS3_EEPKcRKS3_.exit
  %21 = landingpad { ptr, i32 }
          cleanup
  call void @_ZNSt7__cxx1112basic_stringIcSt11char_traitsIcESaIcEED1Ev(ptr noundef nonnull align 8 dereferenceable(32) %3) #30
  br label %.body

.body:                                            ; preds = %18, %11, %20
  %.pn = phi { ptr, i32 } [ %21, %20 ], [ %19, %18 ], [ %12, %11 ]
  call void @_ZNSaIcED1Ev(ptr noundef nonnull align 1 dereferenceable(1) %4) #30
  resume { ptr, i32 } %.pn

22:                                               ; preds = %2
  %23 = tail call noundef ptr @_ZL23cmSourceFileGetPropertyPvPKc(ptr noundef nonnull %0, ptr noundef %1)
  %.not.i.i = icmp eq ptr %23, null
  br i1 %.not.i.i, label %_Z6cmIsOnPKc.exit, label %24

24:                                               ; preds = %22
  %25 = tail call noundef i64 @strlen(ptr noundef nonnull dereferenceable(1) %23) #30
  %26 = tail call noundef zeroext i1 @_ZN7cmValue4IsOnESt17basic_string_viewIcSt11char_traitsIcEE(i64 %25, ptr nonnull %23) #30
  br label %_Z6cmIsOnPKc.exit

_Z6cmIsOnPKc.exit:                                ; preds = %24, %22, %17
  %.010.in = phi i1 [ %16, %17 ], [ false, %22 ], [ %26, %24 ]
  %.010 = zext i1 %.010.in to i32
  ret i32 %.010
}